(lp1
(lp2
I19
aI0
aI2
aI8
aa(lp3
I-1
aI-1
aI-1
aI-1
aa(lp4
I-1
aI-1
aI-1
aI-1
aa(lp5
I-1
aI-1
aI-1
aI-1
aa(lp6
I-1
aI-1
aI-1
aI-1
aa(lp7
I-1
aI-1
aI-1
aI-1
aa(lp8
I-1
aI-1
aI-1
aI-1
aa(lp9
I-1
aI-1
aI-1
aI-1
aa(lp10
I-1
aI-1
aI-1
aI-1
aa(lp11
I-1
aI-1
aI-1
aI-1
aa(lp12
I-1
aI-1
aI-1
aI-1
aa(lp13
I-1
aI-1
aI-1
aI-1
aa(lp14
I-1
aI-1
aI-1
aI-1
aa(lp15
I-1
aI-1
aI-1
aI-1
aa(lp16
I-1
aI-1
aI-1
aI-1
aa(lp17
I-1
aI-1
aI-1
aI-1
aa(lp18
I-1
aI-1
aI-1
aI-1
aa(lp19
I-1
aI-1
aI-1
aI-1
aa(lp20
I-1
aI-1
aI-1
aI-1
aa(lp21
I-1
aI-1
aI-1
aI-1
aa.